target datalayout = "e-m:e-p270:32:32-p271:32:32-p272:64:64-i64:64-i128:128-f80:128-n8:16:32:64-S128"
target triple = "x86_64-pc-linux-gnu"

%struct._asn1_ctx_t = type { i32, i32, i8, ptr, ptr, ptr, ptr, ptr, %struct.anon, %struct.anon.2, %struct.anon.3, ptr }
%struct.anon = type { i32, i8, i8, i8, ptr, ptr, i32, i32, ptr, ptr, ptr, %union.anon }
%union.anon = type { %struct.anon.0 }
%struct.anon.0 = type { ptr }
%struct.anon.2 = type { ptr, ptr, ptr }
%struct.anon.3 = type { i32, i8, ptr, i32, i32, ptr, ptr, ptr, %union.anon.4 }
%union.anon.4 = type { %struct.anon.5 }
%struct.anon.5 = type { ptr }
%struct._packet_info = type { ptr, ptr, i32, i32, %struct.nstime_t, %struct.nstime_t, %struct.nstime_t, i8, ptr, ptr, ptr, ptr, %struct._address, %struct._address, %struct._address, %struct._address, %struct._address, %struct._address, i32, ptr, i8, [3 x i8], %struct.anon.7, i32, i32, i32, i32, ptr, i8, ptr, ptr, i16, i16, i32, i32, i16, i32, i32, ptr, ptr, ptr, i8, i8, i16, i16, i16, i32, i16, i16, ptr, ptr, ptr, ptr, ptr, i32, i32 }
%struct.nstime_t = type { i64, i32 }
%struct._address = type { i32, i32, ptr, ptr }
%struct.anon.7 = type { i8, [3 x i8] }
%struct._sccp_msg_info_t = type { i32, i32, i32, %union.anon.8 }
%union.anon.8 = type { %struct.anon.9 }
%struct.anon.9 = type { ptr, ptr, ptr, ptr, ptr }
%struct._sccp_assoc_info_t = type { i32, i32, i32, i8, i8, i8, i8, ptr, ptr, i32, ptr, ptr, ptr, ptr, i32 }
%struct._proto_node = type { ptr, ptr, ptr, ptr, ptr, ptr, ptr }
%struct.field_info = type { ptr, i32, i32, i32, i32, i32, i32, ptr, ptr, ptr, i32, i32 }

@proto_ranap = internal global i32 0, align 4
@.str.2485 = private unnamed_addr constant [9 x i8] c"IMSI: %s\00", align 1

; Function Attrs: inlinehint nounwind null_pointer_is_valid sspstrong uwtable
define internal void @proto_item_set_hidden(ptr noundef %0) #4 {
  %2 = alloca ptr, align 8
  store ptr %0, ptr %2, align 8
  %3 = load ptr, ptr %2, align 8
  %4 = icmp ne ptr %3, null
  br i1 %4, label %5, label %24

5:                                                ; preds = %1
  br label %6

6:                                                ; preds = %5
  %7 = load ptr, ptr %2, align 8
  %8 = getelementptr inbounds nuw %struct._proto_node, ptr %7, i32 0, i32 5
  %9 = load ptr, ptr %8, align 8
  %10 = icmp ne ptr %9, null
  br i1 %10, label %11, label %22

11:                                               ; preds = %6
  %12 = load ptr, ptr %2, align 8
  %13 = getelementptr inbounds nuw %struct._proto_node, ptr %12, i32 0, i32 5
  %14 = load ptr, ptr %13, align 8
  %15 = getelementptr inbounds nuw %struct.field_info, ptr %14, i32 0, i32 6
  %16 = load i32, ptr %15, align 4
  %17 = or i32 %16, 1
  %18 = load ptr, ptr %2, align 8
  %19 = getelementptr inbounds nuw %struct._proto_node, ptr %18, i32 0, i32 5
  %20 = load ptr, ptr %19, align 8
  %21 = getelementptr inbounds nuw %struct.field_info, ptr %20, i32 0, i32 6
  store i32 %17, ptr %21, align 4
  br label %22

22:                                               ; preds = %11, %6
  br label %23

23:                                               ; preds = %22
  br label %24

24:                                               ; preds = %23, %1
  ret void
}

; Function Attrs: null_pointer_is_valid sspstrong uwtable
define internal i32 @dissect_ranap_IMSI(ptr noundef %0, i32 noundef %1, ptr noundef %2, ptr noundef %3, i32 noundef %4) #0 {
  %6 = alloca i32, align 4
  %7 = alloca ptr, align 8
  %8 = alloca i32, align 4
  %9 = alloca ptr, align 8
  %10 = alloca ptr, align 8
  %11 = alloca i32, align 4
  %12 = alloca ptr, align 8
  %13 = alloca ptr, align 8
  %14 = alloca ptr, align 8
  %15 = alloca i32, align 4
  store ptr %0, ptr %7, align 8
  store i32 %1, ptr %8, align 4
  store ptr %2, ptr %9, align 8
  store ptr %3, ptr %10, align 8
  store i32 %4, ptr %11, align 4
  call void @llvm.lifetime.start.p0(i64 8, ptr %12) #5
  call void @llvm.lifetime.start.p0(i64 8, ptr %13) #5
  call void @llvm.lifetime.start.p0(i64 8, ptr %14) #5
  %16 = load ptr, ptr %7, align 8
  %17 = load i32, ptr %8, align 4
  %18 = load ptr, ptr %9, align 8
  %19 = load ptr, ptr %10, align 8
  %20 = load i32, ptr %11, align 4
  %21 = call i32 @dissect_per_octet_string(ptr noundef %16, i32 noundef %17, ptr noundef %18, ptr noundef %19, i32 noundef %20, i32 noundef 3, i32 noundef 8, i1 noundef zeroext false, ptr noundef %12)
  store i32 %21, ptr %8, align 4
  %22 = load ptr, ptr %12, align 8
  %23 = icmp ne ptr %22, null
  br i1 %23, label %26, label %24

24:                                               ; preds = %5
  %25 = load i32, ptr %8, align 4
  store i32 %25, ptr %6, align 4
  store i32 1, ptr %15, align 4
  br label %89

26:                                               ; preds = %5
  %27 = load ptr, ptr %9, align 8
  %28 = getelementptr inbounds nuw %struct._asn1_ctx_t, ptr %27, i32 0, i32 4
  %29 = load ptr, ptr %28, align 8
  call void @proto_item_set_hidden(ptr noundef %29)
  %30 = load ptr, ptr %12, align 8
  %31 = load ptr, ptr %9, align 8
  %32 = getelementptr inbounds nuw %struct._asn1_ctx_t, ptr %31, i32 0, i32 3
  %33 = load ptr, ptr %32, align 8
  %34 = load ptr, ptr %10, align 8
  %35 = load ptr, ptr %12, align 8
  %36 = call i32 @tvb_reported_length(ptr noundef %35)
  %37 = call ptr @dissect_e212_imsi(ptr noundef %30, ptr noundef %33, ptr noundef %34, i32 noundef 0, i32 noundef %36, i1 noundef zeroext false)
  store ptr %37, ptr %13, align 8
  %38 = load ptr, ptr %9, align 8
  %39 = getelementptr inbounds nuw %struct._asn1_ctx_t, ptr %38, i32 0, i32 3
  %40 = load ptr, ptr %39, align 8
  %41 = getelementptr inbounds nuw %struct._packet_info, ptr %40, i32 0, i32 51
  %42 = load ptr, ptr %41, align 8
  %43 = load ptr, ptr %9, align 8
  %44 = getelementptr inbounds nuw %struct._asn1_ctx_t, ptr %43, i32 0, i32 3
  %45 = load ptr, ptr %44, align 8
  %46 = load i32, ptr @proto_ranap, align 4
  %47 = load ptr, ptr %9, align 8
  %48 = getelementptr inbounds nuw %struct._asn1_ctx_t, ptr %47, i32 0, i32 3
  %49 = load ptr, ptr %48, align 8
  %50 = getelementptr inbounds nuw %struct._packet_info, ptr %49, i32 0, i32 41
  %51 = load i8, ptr %50, align 8
  %52 = zext i8 %51 to i32
  %53 = call ptr @p_get_proto_data(ptr noundef %42, ptr noundef %45, i32 noundef %46, i32 noundef %52)
  store ptr %53, ptr %14, align 8
  %54 = load ptr, ptr %14, align 8
  %55 = icmp ne ptr %54, null
  br i1 %55, label %56, label %87

56:                                               ; preds = %26
  %57 = load ptr, ptr %14, align 8
  %58 = getelementptr inbounds nuw %struct._sccp_msg_info_t, ptr %57, i32 0, i32 3
  %59 = getelementptr inbounds nuw %struct.anon.9, ptr %58, i32 0, i32 3
  %60 = load ptr, ptr %59, align 8
  %61 = icmp ne ptr %60, null
  br i1 %61, label %62, label %87

62:                                               ; preds = %56
  %63 = load ptr, ptr %14, align 8
  %64 = getelementptr inbounds nuw %struct._sccp_msg_info_t, ptr %63, i32 0, i32 3
  %65 = getelementptr inbounds nuw %struct.anon.9, ptr %64, i32 0, i32 3
  %66 = load ptr, ptr %65, align 8
  %67 = getelementptr inbounds nuw %struct._sccp_assoc_info_t, ptr %66, i32 0, i32 10
  %68 = load ptr, ptr %67, align 8
  %69 = icmp ne ptr %68, null
  br i1 %69, label %87, label %70

70:                                               ; preds = %62
  %71 = call ptr @wmem_file_scope()
  %72 = load ptr, ptr %13, align 8
  %73 = call noalias ptr (ptr, ptr, ...) @wmem_strdup_printf(ptr noundef %71, ptr noundef @.str.2485, ptr noundef %72)
  %74 = load ptr, ptr %14, align 8
  %75 = getelementptr inbounds nuw %struct._sccp_msg_info_t, ptr %74, i32 0, i32 3
  %76 = getelementptr inbounds nuw %struct.anon.9, ptr %75, i32 0, i32 3
  %77 = load ptr, ptr %76, align 8
  %78 = getelementptr inbounds nuw %struct._sccp_assoc_info_t, ptr %77, i32 0, i32 10
  store ptr %73, ptr %78, align 8
  %79 = call ptr @wmem_file_scope()
  %80 = load ptr, ptr %13, align 8
  %81 = call noalias ptr @wmem_strdup(ptr noundef %79, ptr noundef %80)
  %82 = load ptr, ptr %14, align 8
  %83 = getelementptr inbounds nuw %struct._sccp_msg_info_t, ptr %82, i32 0, i32 3
  %84 = getelementptr inbounds nuw %struct.anon.9, ptr %83, i32 0, i32 3
  %85 = load ptr, ptr %84, align 8
  %86 = getelementptr inbounds nuw %struct._sccp_assoc_info_t, ptr %85, i32 0, i32 13
  store ptr %81, ptr %86, align 8
  br label %87

87:                                               ; preds = %70, %62, %56, %26
  %88 = load i32, ptr %8, align 4
  store i32 %88, ptr %6, align 4
  store i32 1, ptr %15, align 4
  br label %89

89:                                               ; preds = %87, %24
  call void @llvm.lifetime.end.p0(i64 8, ptr %14) #5
  call void @llvm.lifetime.end.p0(i64 8, ptr %13) #5
  call void @llvm.lifetime.end.p0(i64 8, ptr %12) #5
  %90 = load i32, ptr %6, align 4
  ret i32 %90
}