; Function Attrs: null_pointer_is_valid sspstrong uwtable
define internal i32 @dissect_ranap_IMSI(ptr noundef %0, i32 noundef %1, ptr noundef %2, ptr noundef %3, i32 noundef %4) #0 {
  %6 = alloca ptr, align 8
  call void @llvm.lifetime.start.p0(i64 8, ptr nonnull %6) #4
  %7 = call i32 @dissect_per_octet_string(ptr noundef %0, i32 noundef %1, ptr noundef %2, ptr noundef %3, i32 noundef %4, i32 noundef 3, i32 noundef 8, i1 noundef zeroext false, ptr noundef nonnull %6)
  %8 = load ptr, ptr %6, align 8
  %.not = icmp eq ptr %8, null
  br i1 %.not, label %46, label %9

9:                                                ; preds = %5
  %10 = getelementptr inbounds nuw i8, ptr %2, i64 24
  %11 = load ptr, ptr %10, align 8
  %.not.i = icmp eq ptr %11, null
  br i1 %.not.i, label %proto_item_set_hidden.exit, label %12

12:                                               ; preds = %9
  %13 = getelementptr inbounds nuw i8, ptr %11, i64 40
  %14 = load ptr, ptr %13, align 8
  %.not5.i = icmp eq ptr %14, null
  br i1 %.not5.i, label %proto_item_set_hidden.exit, label %15

15:                                               ; preds = %12
  %16 = getelementptr inbounds nuw i8, ptr %14, i64 28
  %17 = load i32, ptr %16, align 4
  %18 = or i32 %17, 1
  store i32 %18, ptr %16, align 4
  br label %proto_item_set_hidden.exit

proto_item_set_hidden.exit:                       ; preds = %9, %12, %15
  %19 = getelementptr inbounds nuw i8, ptr %2, i64 16
  %20 = load ptr, ptr %19, align 8
  %21 = call i32 @tvb_reported_length(ptr noundef nonnull %8)
  %22 = call ptr @dissect_e212_imsi(ptr noundef nonnull %8, ptr noundef %20, ptr noundef %3, i32 noundef 0, i32 noundef %21, i1 noundef zeroext false)
  %23 = load ptr, ptr %19, align 8
  %24 = getelementptr inbounds nuw i8, ptr %23, i64 408
  %25 = load ptr, ptr %24, align 8
  %26 = load i32, ptr @proto_ranap, align 4
  %27 = getelementptr inbounds nuw i8, ptr %23, i64 376
  %28 = load i8, ptr %27, align 8
  %29 = zext i8 %28 to i32
  %30 = call ptr @p_get_proto_data(ptr noundef %25, ptr noundef %23, i32 noundef %26, i32 noundef %29)
  %.not21 = icmp eq ptr %30, null
  br i1 %.not21, label %46, label %31

31:                                               ; preds = %proto_item_set_hidden.exit
  %32 = getelementptr inbounds nuw i8, ptr %30, i64 40
  %33 = load ptr, ptr %32, align 8
  %.not22 = icmp eq ptr %33, null
  br i1 %.not22, label %46, label %34

34:                                               ; preds = %31
  %35 = getelementptr inbounds nuw i8, ptr %33, i64 40
  %36 = load ptr, ptr %35, align 8
  %.not23 = icmp eq ptr %36, null
  br i1 %.not23, label %37, label %46

37:                                               ; preds = %34
  %38 = call ptr @wmem_file_scope()
  %39 = call noalias ptr (ptr, ptr, ...) @wmem_strdup_printf(ptr noundef %38, ptr noundef nonnull @.str.2485, ptr noundef %22)
  %40 = load ptr, ptr %32, align 8
  %41 = getelementptr inbounds nuw i8, ptr %40, i64 40
  store ptr %39, ptr %41, align 8
  %42 = call ptr @wmem_file_scope()
  %43 = call noalias ptr @wmem_strdup(ptr noundef %42, ptr noundef %22)
  %44 = load ptr, ptr %32, align 8
  %45 = getelementptr inbounds nuw i8, ptr %44, i64 64
  store ptr %43, ptr %45, align 8
  br label %46

46:                                               ; preds = %proto_item_set_hidden.exit, %31, %34, %37, %5
  call void @llvm.lifetime.end.p0(i64 8, ptr nonnull %6) #4
  ret i32 %7
}